(dp0
S'l_n_c'
p1
S'1'
p2
sS'q_c1'
p3
S'3b5fd5aef91a481d8c73ced192054d21|1462763848000|1462763848000'
p4
sS'cap_id'
p5
S'"MWQ1OTRiMzQyNmNhNDY3OWIxZjEwZWU2NjMwMWVkMTY=|1462763848|11eaa90c3e540e01ae2ce6457f30b1b978f28458"'
p6
sS'l_cap_id'
p7
S'"Mzg0NDkwOGYyMzI5NGU1ZDlhNDEzM2Q3ZmUwMWI5OTA=|1462763848|c61b353c2e86a99ea653d6cf6e97e71446bc683a"'
p8
sS'login'
p9
S'"MTg3YTNiNWMxMTMxNDQ1NGI5ZWM2YTMyMDg3ZGYwMzk=|1462763848|f12ab0c34979b9344222bdd0bed7cf1cc6bb3c9e"'
p10
sS'n_c'
p11
g2
s.